; Function Attrs: mustprogress uwtable
define hidden void @_ZN8facebook6hermes7tracing14TracingRuntime25setExternalMemoryPressureERKNS_3jsi6ObjectEm(ptr noundef nonnull align 8 dereferenceable(172) %this, ptr noundef nonnull align 8 dereferenceable(8) %obj, i64 noundef %amount) unnamed_addr #0 align 2 {
entry:
  %amount.addr = alloca i64, align 8
  %ref.tmp = alloca %"class.std::chrono::duration.37", align 8
  %ref.tmp2 = alloca i64, align 8
  store i64 %amount, ptr %amount.addr, align 8
  %trace_ = getelementptr inbounds i8, ptr %this, i64 32
  %call.i = tail call i64 @_ZNSt6chrono3_V212steady_clock3nowEv() #27
  %startTime_.i = getelementptr inbounds i8, ptr %this, i64 160
  %retval.sroa.0.0.copyload.i1.i.i = load i64, ptr %startTime_.i, align 8
  %sub.i.i.i = sub nsw i64 %call.i, %retval.sroa.0.0.copyload.i1.i.i
  %div.i.i.i = sdiv i64 %sub.i.i.i, 1000000
  store i64 %div.i.i.i, ptr %ref.tmp, align 8
  %vtable = load ptr, ptr %this, align 8
  %vfn = getelementptr inbounds i8, ptr %vtable, i64 664
  %0 = load ptr, ptr %vfn, align 8
  %call3 = tail call noundef i64 %0(ptr noundef nonnull align 8 dereferenceable(172) %this, ptr noundef nonnull align 8 dereferenceable(8) %obj)
  store i64 %call3, ptr %ref.tmp2, align 8
  call void @_ZN8facebook6hermes7tracing10SynthTrace12emplace_backINS2_31SetExternalMemoryPressureRecordEJNSt6chrono8durationIlSt5ratioILl1ELl1000EEEEmRmEEEvDpOT0_(ptr noundef nonnull align 8 dereferenceable(48) %trace_, ptr noundef nonnull align 8 dereferenceable(8) %ref.tmp, ptr noundef nonnull align 8 dereferenceable(8) %ref.tmp2, ptr noundef nonnull align 8 dereferenceable(8) %amount.addr)
  %1 = load i64, ptr %amount.addr, align 8
  %plain_.i = getelementptr inbounds i8, ptr %this, i64 16
  %2 = load ptr, ptr %plain_.i, align 8
  %vtable.i = load ptr, ptr %2, align 8
  %vfn.i = getelementptr inbounds i8, ptr %vtable.i, i64 560
  %3 = load ptr, ptr %vfn.i, align 8
  call void %3(ptr noundef nonnull align 8 dereferenceable(8) %2, ptr noundef nonnull align 8 dereferenceable(8) %obj, i64 noundef %1)
  ret void
}